target datalayout = "e-m:e-p270:32:32-p271:32:32-p272:64:64-i64:64-i128:128-f80:128-n8:16:32:64-S128"
target triple = "x86_64-pc-linux-gnu"

%"class.std::__shared_count" = type { ptr }
%"class.std::_Sp_counted_base" = type { ptr, i32, i32 }
%class.anon = type { ptr }
%"class.arrow::Future" = type { %"class.std::shared_ptr.337" }
%"class.std::shared_ptr.337" = type { %"class.std::__shared_ptr.338" }
%"class.std::__shared_ptr.338" = type { ptr, %"class.std::__shared_count" }
%"class.std::_Bind" = type { [8 x i8], %"class.std::tuple.344" }
%"class.std::tuple.344" = type { %"struct.std::_Tuple_impl.345" }
%"struct.std::_Tuple_impl.345" = type { %"struct.std::_Tuple_impl.346", %"struct.std::_Head_base.350" }
%"struct.std::_Tuple_impl.346" = type { %"struct.std::_Tuple_impl.347", %"struct.std::_Head_base.349" }
%"struct.std::_Tuple_impl.347" = type { %"struct.std::_Head_base.348" }
%"struct.std::_Head_base.348" = type { i32 }
%"struct.std::_Head_base.349" = type { %class.anon }
%"struct.std::_Head_base.350" = type { %"class.arrow::Future" }
%"struct.arrow::internal::FnOnce<void ()>::FnImpl" = type { %"struct.arrow::internal::FnOnce<void ()>::Impl", %"class.std::_Bind" }
%"struct.arrow::internal::FnOnce<void ()>::Impl" = type { ptr }

@__libc_single_threaded = external global i8, align 1

; Function Attrs: alwaysinline mustprogress nounwind uwtable
define linkonce_odr noundef i32 @_ZN9__gnu_cxx18__exchange_and_addEPVii(ptr noundef %0, i32 noundef %1) #14 comdat {
  %3 = alloca ptr, align 8
  %4 = alloca i32, align 4
  %5 = alloca i32, align 4
  %6 = alloca i32, align 4
  store ptr %0, ptr %3, align 8, !tbaa !59
  store i32 %1, ptr %4, align 4, !tbaa !8
  %7 = load ptr, ptr %3, align 8, !tbaa !59
  %8 = load i32, ptr %4, align 4, !tbaa !8
  store i32 %8, ptr %5, align 4, !tbaa !8
  %9 = load i32, ptr %5, align 4
  %10 = atomicrmw volatile add ptr %7, i32 %9 acq_rel, align 4
  store i32 %10, ptr %6, align 4
  %11 = load i32, ptr %6, align 4, !tbaa !8
  ret i32 %11
}

; Function Attrs: alwaysinline mustprogress nounwind uwtable
define linkonce_odr noundef i32 @_ZN9__gnu_cxx25__exchange_and_add_singleEPii(ptr noundef %0, i32 noundef %1) #14 comdat {
  %3 = alloca ptr, align 8
  %4 = alloca i32, align 4
  %5 = alloca i32, align 4
  store ptr %0, ptr %3, align 8, !tbaa !59
  store i32 %1, ptr %4, align 4, !tbaa !8
  call void @llvm.lifetime.start.p0(i64 4, ptr %5) #17
  %6 = load ptr, ptr %3, align 8, !tbaa !59
  %7 = load i32, ptr %6, align 4, !tbaa !8
  store i32 %7, ptr %5, align 4, !tbaa !8
  %8 = load i32, ptr %4, align 4, !tbaa !8
  %9 = load ptr, ptr %3, align 8, !tbaa !59
  %10 = load i32, ptr %9, align 4, !tbaa !8
  %11 = add nsw i32 %10, %8
  store i32 %11, ptr %9, align 4, !tbaa !8
  %12 = load i32, ptr %5, align 4, !tbaa !8
  call void @llvm.lifetime.end.p0(i64 4, ptr %5) #17
  ret i32 %12
}

; Function Attrs: alwaysinline mustprogress nounwind uwtable
define linkonce_odr noundef zeroext i1 @_ZN9__gnu_cxx20__is_single_threadedEv() #14 comdat {
  %1 = load i8, ptr @__libc_single_threaded, align 1, !tbaa !22
  %2 = icmp ne i8 %1, 0
  ret i1 %2
}

; Function Attrs: noinline noreturn nounwind uwtable
define linkonce_odr hidden void @__clang_call_terminate(ptr noundef %0) #12 comdat {
  %2 = call ptr @__cxa_begin_catch(ptr %0) #17
  call void @_ZSt9terminatev() #20
  unreachable
}

; Function Attrs: alwaysinline mustprogress uwtable
define linkonce_odr noundef i32 @_ZN9__gnu_cxx27__exchange_and_add_dispatchEPii(ptr noundef %0, i32 noundef %1) #11 comdat {
  %3 = alloca i32, align 4
  %4 = alloca ptr, align 8
  %5 = alloca i32, align 4
  store ptr %0, ptr %4, align 8, !tbaa !59
  store i32 %1, ptr %5, align 4, !tbaa !8
  %6 = call noundef zeroext i1 @_ZN9__gnu_cxx20__is_single_threadedEv() #17
  br i1 %6, label %7, label %11

7:                                                ; preds = %2
  %8 = load ptr, ptr %4, align 8, !tbaa !59
  %9 = load i32, ptr %5, align 4, !tbaa !8
  %10 = call noundef i32 @_ZN9__gnu_cxx25__exchange_and_add_singleEPii(ptr noundef %8, i32 noundef %9)
  store i32 %10, ptr %3, align 4
  br label %15

11:                                               ; preds = %2
  %12 = load ptr, ptr %4, align 8, !tbaa !59
  %13 = load i32, ptr %5, align 4, !tbaa !8
  %14 = call noundef i32 @_ZN9__gnu_cxx18__exchange_and_addEPVii(ptr noundef %12, i32 noundef %13)
  store i32 %14, ptr %3, align 4
  br label %15

15:                                               ; preds = %11, %7
  %16 = load i32, ptr %3, align 4
  ret i32 %16
}

; Function Attrs: inlinehint mustprogress nounwind uwtable
define linkonce_odr void @_ZNSt16_Sp_counted_baseILN9__gnu_cxx12_Lock_policyE2EE10_M_releaseEv(ptr noundef nonnull align 8 dereferenceable(16) %0) #2 comdat align 2 personality ptr @__gxx_personality_v0 {
  %2 = alloca ptr, align 8
  %3 = alloca i8, align 1
  %4 = alloca i8, align 1
  %5 = alloca i8, align 1
  %6 = alloca i32, align 4
  %7 = alloca i32, align 4
  %8 = alloca i64, align 8
  %9 = alloca ptr, align 8
  %10 = alloca i64, align 8
  %11 = alloca i32, align 4
  store ptr %0, ptr %2, align 8, !tbaa !416
  %12 = load ptr, ptr %2, align 8
  call void @llvm.lifetime.start.p0(i64 1, ptr %3) #17
  store i8 1, ptr %3, align 1, !tbaa !123
  call void @llvm.lifetime.start.p0(i64 1, ptr %4) #17
  store i8 1, ptr %4, align 1, !tbaa !123
  call void @llvm.lifetime.start.p0(i64 1, ptr %5) #17
  store i8 1, ptr %5, align 1, !tbaa !123
  call void @llvm.lifetime.start.p0(i64 4, ptr %6) #17
  store i32 32, ptr %6, align 4, !tbaa !8
  call void @llvm.lifetime.start.p0(i64 4, ptr %7) #17
  store i32 32, ptr %7, align 4, !tbaa !8
  call void @llvm.lifetime.start.p0(i64 8, ptr %8) #17
  store i64 4294967297, ptr %8, align 8, !tbaa !417
  call void @llvm.lifetime.start.p0(i64 8, ptr %9) #17
  %13 = getelementptr inbounds nuw %"class.std::_Sp_counted_base", ptr %12, i32 0, i32 1
  store ptr %13, ptr %9, align 8, !tbaa !419
  %14 = load ptr, ptr %9, align 8, !tbaa !419
  %15 = load atomic i64, ptr %14 acquire, align 8
  store i64 %15, ptr %10, align 8
  %16 = load i64, ptr %10, align 8, !tbaa !417
  %17 = icmp eq i64 %16, 4294967297
  br i1 %17, label %18, label %27

18:                                               ; preds = %1
  %19 = getelementptr inbounds nuw %"class.std::_Sp_counted_base", ptr %12, i32 0, i32 1
  store i32 0, ptr %19, align 8, !tbaa !421
  %20 = getelementptr inbounds nuw %"class.std::_Sp_counted_base", ptr %12, i32 0, i32 2
  store i32 0, ptr %20, align 4, !tbaa !423
  %21 = load ptr, ptr %12, align 8, !tbaa !63
  %22 = getelementptr inbounds ptr, ptr %21, i64 2
  %23 = load ptr, ptr %22, align 8
  call void %23(ptr noundef nonnull align 8 dereferenceable(16) %12) #17
  %24 = load ptr, ptr %12, align 8, !tbaa !63
  %25 = getelementptr inbounds ptr, ptr %24, i64 3
  %26 = load ptr, ptr %25, align 8
  call void %26(ptr noundef nonnull align 8 dereferenceable(16) %12) #17
  store i32 1, ptr %11, align 4
  br label %35

27:                                               ; preds = %1
  %28 = getelementptr inbounds nuw %"class.std::_Sp_counted_base", ptr %12, i32 0, i32 1
  %29 = invoke noundef i32 @_ZN9__gnu_cxx27__exchange_and_add_dispatchEPii(ptr noundef %28, i32 noundef -1)
          to label %30 unwind label %41

30:                                               ; preds = %27
  %31 = icmp eq i32 %29, 1
  %32 = call i1 @llvm.expect.i1(i1 %31, i1 false)
  br i1 %32, label %33, label %34

33:                                               ; preds = %30
  call void @_ZNSt16_Sp_counted_baseILN9__gnu_cxx12_Lock_policyE2EE24_M_release_last_use_coldEv(ptr noundef nonnull align 8 dereferenceable(16) %12) #17
  store i32 1, ptr %11, align 4
  br label %35

34:                                               ; preds = %30
  store i32 0, ptr %11, align 4
  br label %35

35:                                               ; preds = %34, %33, %18
  call void @llvm.lifetime.end.p0(i64 8, ptr %9) #17
  call void @llvm.lifetime.end.p0(i64 8, ptr %8) #17
  call void @llvm.lifetime.end.p0(i64 4, ptr %7) #17
  call void @llvm.lifetime.end.p0(i64 4, ptr %6) #17
  %36 = load i32, ptr %11, align 4
  switch i32 %36, label %38 [
    i32 0, label %37
  ]

37:                                               ; preds = %35
  store i32 0, ptr %11, align 4
  br label %38

38:                                               ; preds = %37, %35
  call void @llvm.lifetime.end.p0(i64 1, ptr %5) #17
  call void @llvm.lifetime.end.p0(i64 1, ptr %4) #17
  call void @llvm.lifetime.end.p0(i64 1, ptr %3) #17
  %39 = load i32, ptr %11, align 4
  switch i32 %39, label %44 [
    i32 0, label %40
    i32 1, label %40
  ]

40:                                               ; preds = %38, %38
  ret void

41:                                               ; preds = %27
  %42 = landingpad { ptr, i32 }
          catch ptr null
  %43 = extractvalue { ptr, i32 } %42, 0
  call void @__clang_call_terminate(ptr %43) #20
  unreachable

44:                                               ; preds = %38
  unreachable
}

; Function Attrs: mustprogress nounwind uwtable
define linkonce_odr void @_ZNSt14__shared_countILN9__gnu_cxx12_Lock_policyE2EED2Ev(ptr noundef nonnull align 8 dereferenceable(8) %0) unnamed_addr #0 comdat align 2 {
  %2 = alloca ptr, align 8
  store ptr %0, ptr %2, align 8, !tbaa !413
  %3 = load ptr, ptr %2, align 8
  %4 = getelementptr inbounds nuw %"class.std::__shared_count", ptr %3, i32 0, i32 0
  %5 = load ptr, ptr %4, align 8, !tbaa !415
  %6 = icmp ne ptr %5, null
  br i1 %6, label %7, label %10

7:                                                ; preds = %1
  %8 = getelementptr inbounds nuw %"class.std::__shared_count", ptr %3, i32 0, i32 0
  %9 = load ptr, ptr %8, align 8, !tbaa !415
  call void @_ZNSt16_Sp_counted_baseILN9__gnu_cxx12_Lock_policyE2EE10_M_releaseEv(ptr noundef nonnull align 8 dereferenceable(16) %9) #17
  br label %10

10:                                               ; preds = %7, %1
  ret void
}

; Function Attrs: mustprogress nounwind uwtable
define linkonce_odr void @_ZNSt12__shared_ptrIN5arrow10FutureImplELN9__gnu_cxx12_Lock_policyE2EED2Ev(ptr noundef nonnull align 8 dereferenceable(16) %0) unnamed_addr #0 comdat align 2 {
  %2 = alloca ptr, align 8
  store ptr %0, ptr %2, align 8, !tbaa !1006
  %3 = load ptr, ptr %2, align 8
  %4 = getelementptr inbounds nuw %"class.std::__shared_ptr.338", ptr %3, i32 0, i32 1
  call void @_ZNSt14__shared_countILN9__gnu_cxx12_Lock_policyE2EED2Ev(ptr noundef nonnull align 8 dereferenceable(8) %4) #17
  ret void
}

; Function Attrs: inlinehint mustprogress nounwind uwtable
define linkonce_odr void @_ZN5arrow6FutureINS_8internal5EmptyEED2Ev(ptr noundef nonnull align 8 dereferenceable(16) %0) unnamed_addr #2 comdat align 2 {
  %2 = alloca ptr, align 8
  store ptr %0, ptr %2, align 8, !tbaa !978
  %3 = load ptr, ptr %2, align 8
  %4 = getelementptr inbounds nuw %"class.arrow::Future", ptr %3, i32 0, i32 0
  call void @_ZNSt12__shared_ptrIN5arrow10FutureImplELN9__gnu_cxx12_Lock_policyE2EED2Ev(ptr noundef nonnull align 8 dereferenceable(16) %4) #17
  ret void
}

; Function Attrs: inlinehint mustprogress nounwind uwtable
define linkonce_odr void @_ZNSt10_Head_baseILm0EN5arrow6FutureINS0_8internal5EmptyEEELb0EED2Ev(ptr noundef nonnull align 8 dereferenceable(16) %0) unnamed_addr #2 comdat align 2 {
  %2 = alloca ptr, align 8
  store ptr %0, ptr %2, align 8, !tbaa !1078
  %3 = load ptr, ptr %2, align 8
  %4 = getelementptr inbounds nuw %"struct.std::_Head_base.350", ptr %3, i32 0, i32 0
  call void @_ZN5arrow6FutureINS_8internal5EmptyEED2Ev(ptr noundef nonnull align 8 dereferenceable(16) %4) #17
  ret void
}

; Function Attrs: inlinehint mustprogress nounwind uwtable
define internal void @_ZNSt11_Tuple_implILm0EJN5arrow6FutureINS0_8internal5EmptyEEEZNS0_3ipc12_GLOBAL__N_121RecordBatchSerializer19CompressBodyBuffersEvEUlmE_iEED2Ev(ptr noundef nonnull align 8 dereferenceable(32) %0) unnamed_addr #2 align 2 {
  %2 = alloca ptr, align 8
  store ptr %0, ptr %2, align 8, !tbaa !1074
  %3 = load ptr, ptr %2, align 8
  %4 = getelementptr inbounds i8, ptr %3, i64 16
  call void @_ZNSt10_Head_baseILm0EN5arrow6FutureINS0_8internal5EmptyEEELb0EED2Ev(ptr noundef nonnull align 8 dereferenceable(16) %4) #17
  ret void
}

; Function Attrs: mustprogress nounwind uwtable
define linkonce_odr void @_ZN5arrow8internal6FnOnceIFvvEE4ImplD2Ev(ptr noundef nonnull align 8 dereferenceable(8) %0) unnamed_addr #0 comdat align 2 {
  %2 = alloca ptr, align 8
  store ptr %0, ptr %2, align 8, !tbaa !1095
  ret void
}

; Function Attrs: inlinehint mustprogress nounwind uwtable
define internal void @_ZNSt5_BindIFN5arrow6detail14ContinueFutureENS0_6FutureINS0_8internal5EmptyEEEZNS0_3ipc12_GLOBAL__N_121RecordBatchSerializer19CompressBodyBuffersEvEUlmE_iEED2Ev(ptr noundef nonnull align 8 dereferenceable(40) %0) unnamed_addr #2 align 2 {
  %2 = alloca ptr, align 8
  store ptr %0, ptr %2, align 8, !tbaa !1019
  %3 = load ptr, ptr %2, align 8
  %4 = getelementptr inbounds nuw %"class.std::_Bind", ptr %3, i32 0, i32 1
  call void @_ZNSt11_Tuple_implILm0EJN5arrow6FutureINS0_8internal5EmptyEEEZNS0_3ipc12_GLOBAL__N_121RecordBatchSerializer19CompressBodyBuffersEvEUlmE_iEED2Ev(ptr noundef nonnull align 8 dereferenceable(32) %4) #17
  ret void
}

; Function Attrs: inlinehint mustprogress nounwind uwtable
define internal void @_ZN5arrow8internal6FnOnceIFvvEE6FnImplISt5_BindIFNS_6detail14ContinueFutureENS_6FutureINS0_5EmptyEEEZNS_3ipc12_GLOBAL__N_121RecordBatchSerializer19CompressBodyBuffersEvEUlmE_iEEED2Ev(ptr noundef nonnull align 8 dereferenceable(48) %0) unnamed_addr #2 align 2 {
  %2 = alloca ptr, align 8
  store ptr %0, ptr %2, align 8, !tbaa !1091
  %3 = load ptr, ptr %2, align 8
  store ptr getelementptr inbounds inrange(-16, 24) ({ [5 x ptr] }, ptr @_ZTVN5arrow8internal6FnOnceIFvvEE6FnImplISt5_BindIFNS_6detail14ContinueFutureENS_6FutureINS0_5EmptyEEEZNS_3ipc12_GLOBAL__N_121RecordBatchSerializer19CompressBodyBuffersEvEUlmE_iEEEE, i32 0, i32 0, i32 2), ptr %3, align 8, !tbaa !63
  %4 = getelementptr inbounds nuw %"struct.arrow::internal::FnOnce<void ()>::FnImpl", ptr %3, i32 0, i32 1
  call void @_ZNSt5_BindIFN5arrow6detail14ContinueFutureENS0_6FutureINS0_8internal5EmptyEEEZNS0_3ipc12_GLOBAL__N_121RecordBatchSerializer19CompressBodyBuffersEvEUlmE_iEED2Ev(ptr noundef nonnull align 8 dereferenceable(40) %4) #17
  call void @_ZN5arrow8internal6FnOnceIFvvEE4ImplD2Ev(ptr noundef nonnull align 8 dereferenceable(8) %3) #17
  ret void
}

; Function Attrs: inlinehint mustprogress nounwind uwtable
define internal void @_ZN5arrow8internal6FnOnceIFvvEE6FnImplISt5_BindIFNS_6detail14ContinueFutureENS_6FutureINS0_5EmptyEEEZNS_3ipc12_GLOBAL__N_121RecordBatchSerializer19CompressBodyBuffersEvEUlmE_iEEED0Ev(ptr noundef nonnull align 8 dereferenceable(48) %0) unnamed_addr #2 align 2 {
  %2 = alloca ptr, align 8
  store ptr %0, ptr %2, align 8, !tbaa !1091
  %3 = load ptr, ptr %2, align 8
  call void @_ZN5arrow8internal6FnOnceIFvvEE6FnImplISt5_BindIFNS_6detail14ContinueFutureENS_6FutureINS0_5EmptyEEEZNS_3ipc12_GLOBAL__N_121RecordBatchSerializer19CompressBodyBuffersEvEUlmE_iEEED2Ev(ptr noundef nonnull align 8 dereferenceable(48) %3) #17
  call void @_ZdlPvm(ptr noundef %3, i64 noundef 48) #22
  ret void
}